; ModuleID = 'probe1.38febe8a-cgu.0'
source_filename = "probe1.38febe8a-cgu.0"
target datalayout = "e-m:e-p270:32:32-p271:32:32-p272:64:64-i64:64-f80:128-n8:16:32:64-S128"
target triple = "x86_64-unknown-linux-gnu"

%"core::panic::location::Location" = type { { [0 x i8]*, i64 }, i32, i32 }
%"core::result::Result<core::alloc::layout::Layout, core::alloc::layout::LayoutError>::Err" = type { %"core::alloc::layout::LayoutError" }
%"core::alloc::layout::LayoutError" = type {}
%"core::fmt::Formatter" = type { { i64, i64 }, { i64, i64 }, { {}*, [3 x i64]* }, i32, i32, i8, [7 x i8] }
%"core::fmt::Opaque" = type {}
%"core::fmt::Arguments" = type { { [0 x { [0 x i8]*, i64 }]*, i64 }, { i64*, i64 }, { [0 x { i8*, i64* }]*, i64 } }
%"alloc::string::String" = type { %"alloc::vec::Vec<u8>" }
%"alloc::vec::Vec<u8>" = type { { i8*, i64 }, i64 }
%"core::ptr::metadata::PtrRepr<[u8]>" = type { [2 x i64] }
%"core::option::Option<(core::ptr::non_null::NonNull<u8>, core::alloc::layout::Layout)>" = type { [2 x i64], i64 }
%"core::option::Option<(core::ptr::non_null::NonNull<u8>, core::alloc::layout::Layout)>::Some" = type { { i8*, { i64, i64 } } }
%"alloc::alloc::Global" = type {}
%"core::result::Result<core::convert::Infallible, core::alloc::layout::LayoutError>::Err" = type { %"core::alloc::layout::LayoutError" }
%"unwind::libunwind::_Unwind_Exception" = type { i64, void (i32, %"unwind::libunwind::_Unwind_Exception"*)*, [6 x i64] }
%"unwind::libunwind::_Unwind_Context" = type { [0 x i8] }

@alloc7 = private unnamed_addr constant <{ [12 x i8] }> <{ [12 x i8] c"invalid args" }>, align 1
@alloc8 = private unnamed_addr constant <{ i8*, [8 x i8] }> <{ i8* getelementptr inbounds (<{ [12 x i8] }>, <{ [12 x i8] }>* @alloc7, i32 0, i32 0, i32 0), [8 x i8] c"\0C\00\00\00\00\00\00\00" }>, align 8
@alloc2 = private unnamed_addr constant <{}> zeroinitializer, align 8
@alloc75 = private unnamed_addr constant <{ [75 x i8] }> <{ [75 x i8] c"/rustc/a8314ef7d0ec7b75c336af2c9857bfaf43002bfc/library/core/src/fmt/mod.rs" }>, align 1
@alloc76 = private unnamed_addr constant <{ i8*, [16 x i8] }> <{ i8* getelementptr inbounds (<{ [75 x i8] }>, <{ [75 x i8] }>* @alloc75, i32 0, i32 0, i32 0), [16 x i8] c"K\00\00\00\00\00\00\00\86\01\00\00\0D\00\00\00" }>, align 8
@alloc94 = private unnamed_addr constant <{ [80 x i8] }> <{ [80 x i8] c"/rustc/a8314ef7d0ec7b75c336af2c9857bfaf43002bfc/library/core/src/alloc/layout.rs" }>, align 1
@alloc95 = private unnamed_addr constant <{ i8*, [16 x i8] }> <{ i8* getelementptr inbounds (<{ [80 x i8] }>, <{ [80 x i8] }>* @alloc94, i32 0, i32 0, i32 0), [16 x i8] c"P\00\00\00\00\00\00\00\97\01\00\00\1A\00\00\00" }>, align 8
@alloc96 = private unnamed_addr constant <{ [76 x i8] }> <{ [76 x i8] c"/rustc/a8314ef7d0ec7b75c336af2c9857bfaf43002bfc/library/alloc/src/raw_vec.rs" }>, align 1
@alloc97 = private unnamed_addr constant <{ i8*, [16 x i8] }> <{ i8* getelementptr inbounds (<{ [76 x i8] }>, <{ [76 x i8] }>* @alloc96, i32 0, i32 0, i32 0), [16 x i8] c"L\00\00\00\00\00\00\00\F7\00\00\00;\00\00\00" }>, align 8
@alloc3 = private unnamed_addr constant <{ i8*, [8 x i8] }> <{ i8* bitcast (<{}>* @alloc2 to i8*), [8 x i8] zeroinitializer }>, align 8
@alloc5 = private unnamed_addr constant <{ [8 x i8] }> zeroinitializer, align 8

; <core::ptr::non_null::NonNull<T> as core::convert::From<core::ptr::unique::Unique<T>>>::from
; Function Attrs: inlinehint nonlazybind uwtable
define i8* @"_ZN119_$LT$core..ptr..non_null..NonNull$LT$T$GT$$u20$as$u20$core..convert..From$LT$core..ptr..unique..Unique$LT$T$GT$$GT$$GT$4from17h273d50390c726991E"(i8* %unique) unnamed_addr #0 {
start:
; call core::ptr::unique::Unique<T>::as_ptr
  %_2 = call i8* @"_ZN4core3ptr6unique15Unique$LT$T$GT$6as_ptr17h0502e2cb702cad0bE"(i8* %unique)
  br label %bb1

bb1:                                              ; preds = %start
; call core::ptr::non_null::NonNull<T>::new_unchecked
  %0 = call i8* @"_ZN4core3ptr8non_null16NonNull$LT$T$GT$13new_unchecked17hc7ad126e4d8dfb24E"(i8* %_2)
  br label %bb2

bb2:                                              ; preds = %bb1
  ret i8* %0
}

; <core::ptr::unique::Unique<T> as core::convert::From<core::ptr::non_null::NonNull<T>>>::from
; Function Attrs: inlinehint nonlazybind uwtable
define i8* @"_ZN119_$LT$core..ptr..unique..Unique$LT$T$GT$$u20$as$u20$core..convert..From$LT$core..ptr..non_null..NonNull$LT$T$GT$$GT$$GT$4from17hbc17410b09f8a324E"(i8* %pointer) unnamed_addr #0 {
start:
  %0 = alloca i8*, align 8
  store i8* %pointer, i8** %0, align 8
  %1 = load i8*, i8** %0, align 8, !nonnull !2, !noundef !2
  ret i8* %1
}

; <core::result::Result<T,F> as core::ops::try_trait::FromResidual<core::result::Result<core::convert::Infallible,E>>>::from_residual
; Function Attrs: inlinehint nonlazybind uwtable
define { i64, i64 } @"_ZN153_$LT$core..result..Result$LT$T$C$F$GT$$u20$as$u20$core..ops..try_trait..FromResidual$LT$core..result..Result$LT$core..convert..Infallible$C$E$GT$$GT$$GT$13from_residual17h32685b3485a753f7E"(%"core::panic::location::Location"* align 8 %0) unnamed_addr #0 {
start:
  %1 = alloca { i64, i64 }, align 8
; call <T as core::convert::From<T>>::from
  call void @"_ZN50_$LT$T$u20$as$u20$core..convert..From$LT$T$GT$$GT$4from17hac69cbf54d1e128dE"()
  br label %bb1

bb1:                                              ; preds = %start
  %2 = bitcast { i64, i64 }* %1 to %"core::result::Result<core::alloc::layout::Layout, core::alloc::layout::LayoutError>::Err"*
  %3 = bitcast %"core::result::Result<core::alloc::layout::Layout, core::alloc::layout::LayoutError>::Err"* %2 to %"core::alloc::layout::LayoutError"*
  %4 = getelementptr inbounds { i64, i64 }, { i64, i64 }* %1, i32 0, i32 1
  store i64 0, i64* %4, align 8
  %5 = getelementptr inbounds { i64, i64 }, { i64, i64 }* %1, i32 0, i32 0
  %6 = load i64, i64* %5, align 8
  %7 = getelementptr inbounds { i64, i64 }, { i64, i64 }* %1, i32 0, i32 1
  %8 = load i64, i64* %7, align 8, !range !3, !noundef !2
  %9 = insertvalue { i64, i64 } undef, i64 %6, 0
  %10 = insertvalue { i64, i64 } %9, i64 %8, 1
  ret { i64, i64 } %10
}

; core::fmt::ArgumentV1::new_lower_exp
; Function Attrs: inlinehint nonlazybind uwtable
define { i8*, i64* } @_ZN4core3fmt10ArgumentV113new_lower_exp17hc7ce2c55becf7381E(i64* align 8 %x) unnamed_addr #0 {
start:
; call core::fmt::ArgumentV1::new
  %0 = call { i8*, i64* } @_ZN4core3fmt10ArgumentV13new17hd87be6784ee97610E(i64* align 8 %x, i1 (i64*, %"core::fmt::Formatter"*)* @"_ZN4core3fmt3num3imp55_$LT$impl$u20$core..fmt..LowerExp$u20$for$u20$isize$GT$3fmt17h9bf3044b1d960844E")
  %1 = extractvalue { i8*, i64* } %0, 0
  %2 = extractvalue { i8*, i64* } %0, 1
  br label %bb1

bb1:                                              ; preds = %start
  %3 = insertvalue { i8*, i64* } undef, i8* %1, 0
  %4 = insertvalue { i8*, i64* } %3, i64* %2, 1
  ret { i8*, i64* } %4
}

; core::fmt::ArgumentV1::new
; Function Attrs: inlinehint nonlazybind uwtable
define { i8*, i64* } @_ZN4core3fmt10ArgumentV13new17hd87be6784ee97610E(i64* align 8 %x, i1 (i64*, %"core::fmt::Formatter"*)* %f) unnamed_addr #0 {
start:
  %0 = alloca %"core::fmt::Opaque"*, align 8
  %1 = alloca i1 (%"core::fmt::Opaque"*, %"core::fmt::Formatter"*)*, align 8
  %2 = alloca { i8*, i64* }, align 8
  %3 = bitcast i1 (i64*, %"core::fmt::Formatter"*)* %f to i1 (%"core::fmt::Opaque"*, %"core::fmt::Formatter"*)*
  store i1 (%"core::fmt::Opaque"*, %"core::fmt::Formatter"*)* %3, i1 (%"core::fmt::Opaque"*, %"core::fmt::Formatter"*)** %1, align 8
  %_3 = load i1 (%"core::fmt::Opaque"*, %"core::fmt::Formatter"*)*, i1 (%"core::fmt::Opaque"*, %"core::fmt::Formatter"*)** %1, align 8, !nonnull !2, !noundef !2
  br label %bb1

bb1:                                              ; preds = %start
  %4 = bitcast i64* %x to %"core::fmt::Opaque"*
  store %"core::fmt::Opaque"* %4, %"core::fmt::Opaque"** %0, align 8
  %_5 = load %"core::fmt::Opaque"*, %"core::fmt::Opaque"** %0, align 8, !nonnull !2, !align !4, !noundef !2
  br label %bb2

bb2:                                              ; preds = %bb1
  %5 = bitcast { i8*, i64* }* %2 to %"core::fmt::Opaque"**
  store %"core::fmt::Opaque"* %_5, %"core::fmt::Opaque"** %5, align 8
  %6 = getelementptr inbounds { i8*, i64* }, { i8*, i64* }* %2, i32 0, i32 1
  %7 = bitcast i64** %6 to i1 (%"core::fmt::Opaque"*, %"core::fmt::Formatter"*)**
  store i1 (%"core::fmt::Opaque"*, %"core::fmt::Formatter"*)* %_3, i1 (%"core::fmt::Opaque"*, %"core::fmt::Formatter"*)** %7, align 8
  %8 = getelementptr inbounds { i8*, i64* }, { i8*, i64* }* %2, i32 0, i32 0
  %9 = load i8*, i8** %8, align 8, !nonnull !2, !align !4, !noundef !2
  %10 = getelementptr inbounds { i8*, i64* }, { i8*, i64* }* %2, i32 0, i32 1
  %11 = load i64*, i64** %10, align 8, !nonnull !2, !noundef !2
  %12 = insertvalue { i8*, i64* } undef, i8* %9, 0
  %13 = insertvalue { i8*, i64* } %12, i64* %11, 1
  ret { i8*, i64* } %13
}

; core::fmt::Arguments::new_v1
; Function Attrs: inlinehint nonlazybind uwtable
define internal void @_ZN4core3fmt9Arguments6new_v117h25ced847cf05ba3eE(%"core::fmt::Arguments"* sret(%"core::fmt::Arguments") %0, [0 x { [0 x i8]*, i64 }]* align 8 %pieces.0, i64 %pieces.1, [0 x { i8*, i64* }]* align 8 %args.0, i64 %args.1) unnamed_addr #0 {
start:
  %_23 = alloca { i64*, i64 }, align 8
  %_15 = alloca %"core::fmt::Arguments", align 8
  %_3 = alloca i8, align 1
  %_4 = icmp ult i64 %pieces.1, %args.1
  br i1 %_4, label %bb1, label %bb2

bb2:                                              ; preds = %start
  %_12 = add i64 %args.1, 1
  %_9 = icmp ugt i64 %pieces.1, %_12
  %1 = zext i1 %_9 to i8
  store i8 %1, i8* %_3, align 1
  br label %bb3

bb1:                                              ; preds = %start
  store i8 1, i8* %_3, align 1
  br label %bb3

bb3:                                              ; preds = %bb2, %bb1
  %2 = load i8, i8* %_3, align 1, !range !5, !noundef !2
  %3 = trunc i8 %2 to i1
  br i1 %3, label %bb4, label %bb6

bb6:                                              ; preds = %bb3
  %4 = bitcast { i64*, i64 }* %_23 to {}**
  store {}* null, {}** %4, align 8
  %5 = bitcast %"core::fmt::Arguments"* %0 to { [0 x { [0 x i8]*, i64 }]*, i64 }*
  %6 = getelementptr inbounds { [0 x { [0 x i8]*, i64 }]*, i64 }, { [0 x { [0 x i8]*, i64 }]*, i64 }* %5, i32 0, i32 0
  store [0 x { [0 x i8]*, i64 }]* %pieces.0, [0 x { [0 x i8]*, i64 }]** %6, align 8
  %7 = getelementptr inbounds { [0 x { [0 x i8]*, i64 }]*, i64 }, { [0 x { [0 x i8]*, i64 }]*, i64 }* %5, i32 0, i32 1
  store i64 %pieces.1, i64* %7, align 8
  %8 = getelementptr inbounds %"core::fmt::Arguments", %"core::fmt::Arguments"* %0, i32 0, i32 1
  %9 = getelementptr inbounds { i64*, i64 }, { i64*, i64 }* %_23, i32 0, i32 0
  %10 = load i64*, i64** %9, align 8, !align !6
  %11 = getelementptr inbounds { i64*, i64 }, { i64*, i64 }* %_23, i32 0, i32 1
  %12 = load i64, i64* %11, align 8
  %13 = getelementptr inbounds { i64*, i64 }, { i64*, i64 }* %8, i32 0, i32 0
  store i64* %10, i64** %13, align 8
  %14 = getelementptr inbounds { i64*, i64 }, { i64*, i64 }* %8, i32 0, i32 1
  store i64 %12, i64* %14, align 8
  %15 = getelementptr inbounds %"core::fmt::Arguments", %"core::fmt::Arguments"* %0, i32 0, i32 2
  %16 = getelementptr inbounds { [0 x { i8*, i64* }]*, i64 }, { [0 x { i8*, i64* }]*, i64 }* %15, i32 0, i32 0
  store [0 x { i8*, i64* }]* %args.0, [0 x { i8*, i64* }]** %16, align 8
  %17 = getelementptr inbounds { [0 x { i8*, i64* }]*, i64 }, { [0 x { i8*, i64* }]*, i64 }* %15, i32 0, i32 1
  store i64 %args.1, i64* %17, align 8
  ret void

bb4:                                              ; preds = %bb3
; call core::fmt::Arguments::new_v1
  call void @_ZN4core3fmt9Arguments6new_v117h25ced847cf05ba3eE(%"core::fmt::Arguments"* sret(%"core::fmt::Arguments") %_15, [0 x { [0 x i8]*, i64 }]* align 8 bitcast (<{ i8*, [8 x i8] }>* @alloc8 to [0 x { [0 x i8]*, i64 }]*), i64 1, [0 x { i8*, i64* }]* align 8 bitcast (<{}>* @alloc2 to [0 x { i8*, i64* }]*), i64 0)
  br label %bb5

bb5:                                              ; preds = %bb4
; call core::panicking::panic_fmt
  call void @_ZN4core9panicking9panic_fmt17h741cfbfc95bc6112E(%"core::fmt::Arguments"* %_15, %"core::panic::location::Location"* align 8 bitcast (<{ i8*, [16 x i8] }>* @alloc76 to %"core::panic::location::Location"*)) #10
  unreachable
}

; core::mem::valid_align::ValidAlign::as_nonzero
; Function Attrs: inlinehint nonlazybind uwtable
define internal i64 @_ZN4core3mem11valid_align10ValidAlign10as_nonzero17h770f1a13807e9b79E(i64 %self) unnamed_addr #0 {
start:
  %0 = icmp uge i64 %self, 1
  call void @llvm.assume(i1 %0)
  %1 = icmp ule i64 %self, -9223372036854775808
  call void @llvm.assume(i1 %1)
; call core::num::nonzero::NonZeroUsize::new_unchecked
  %2 = call i64 @_ZN4core3num7nonzero12NonZeroUsize13new_unchecked17h33b0b48c0ca0c008E(i64 %self), !range !7
  br label %bb1

bb1:                                              ; preds = %start
  ret i64 %2
}

; core::mem::valid_align::ValidAlign::new_unchecked
; Function Attrs: inlinehint nonlazybind uwtable
define internal i64 @_ZN4core3mem11valid_align10ValidAlign13new_unchecked17h4655fac9889fcc58E(i64 %align) unnamed_addr #0 {
start:
  %0 = alloca i64, align 8
  store i64 %align, i64* %0, align 8
  %1 = load i64, i64* %0, align 8, !range !8, !noundef !2
  br label %bb1

bb1:                                              ; preds = %start
  ret i64 %1
}

; core::num::<impl usize>::checked_mul
; Function Attrs: inlinehint nonlazybind uwtable
define internal { i64, i64 } @"_ZN4core3num23_$LT$impl$u20$usize$GT$11checked_mul17h4dbd42b75b5a88f3E"(i64 %self, i64 %rhs) unnamed_addr #0 {
start:
  %0 = alloca { i64, i8 }, align 8
  %1 = alloca { i64, i8 }, align 8
  %2 = alloca i8, align 1
  %3 = alloca { i64, i64 }, align 8
  %4 = call { i64, i1 } @llvm.umul.with.overflow.i64(i64 %self, i64 %rhs)
  %5 = extractvalue { i64, i1 } %4, 0
  %6 = extractvalue { i64, i1 } %4, 1
  %7 = zext i1 %6 to i8
  %8 = bitcast { i64, i8 }* %0 to i64*
  store i64 %5, i64* %8, align 8
  %9 = getelementptr inbounds { i64, i8 }, { i64, i8 }* %0, i32 0, i32 1
  store i8 %7, i8* %9, align 8
  %10 = getelementptr inbounds { i64, i8 }, { i64, i8 }* %0, i32 0, i32 0
  %_5.0.i = load i64, i64* %10, align 8
  %11 = getelementptr inbounds { i64, i8 }, { i64, i8 }* %0, i32 0, i32 1
  %12 = load i8, i8* %11, align 8, !range !5, !noundef !2
  %_5.1.i = trunc i8 %12 to i1
  %13 = bitcast { i64, i8 }* %1 to i64*
  store i64 %_5.0.i, i64* %13, align 8
  %14 = getelementptr inbounds { i64, i8 }, { i64, i8 }* %1, i32 0, i32 1
  %15 = zext i1 %_5.1.i to i8
  store i8 %15, i8* %14, align 8
  %16 = getelementptr inbounds { i64, i8 }, { i64, i8 }* %1, i32 0, i32 0
  %17 = load i64, i64* %16, align 8
  %18 = getelementptr inbounds { i64, i8 }, { i64, i8 }* %1, i32 0, i32 1
  %19 = load i8, i8* %18, align 8, !range !5, !noundef !2
  %20 = trunc i8 %19 to i1
  %21 = zext i1 %20 to i8
  %22 = insertvalue { i64, i8 } undef, i64 %17, 0
  %23 = insertvalue { i64, i8 } %22, i8 %21, 1
  %_5.0 = extractvalue { i64, i8 } %23, 0
  %24 = extractvalue { i64, i8 } %23, 1
  %_5.1 = trunc i8 %24 to i1
  br label %bb1

bb1:                                              ; preds = %start
  %25 = call i1 @llvm.expect.i1(i1 %_5.1, i1 false)
  %26 = zext i1 %25 to i8
  store i8 %26, i8* %2, align 1
  %27 = load i8, i8* %2, align 1, !range !5, !noundef !2
  %_8 = trunc i8 %27 to i1
  br label %bb2

bb2:                                              ; preds = %bb1
  br i1 %_8, label %bb3, label %bb4

bb4:                                              ; preds = %bb2
  %28 = getelementptr inbounds { i64, i64 }, { i64, i64 }* %3, i32 0, i32 1
  store i64 %_5.0, i64* %28, align 8
  %29 = bitcast { i64, i64 }* %3 to i64*
  store i64 1, i64* %29, align 8
  br label %bb5

bb3:                                              ; preds = %bb2
  %30 = bitcast { i64, i64 }* %3 to i64*
  store i64 0, i64* %30, align 8
  br label %bb5

bb5:                                              ; preds = %bb4, %bb3
  %31 = getelementptr inbounds { i64, i64 }, { i64, i64 }* %3, i32 0, i32 0
  %32 = load i64, i64* %31, align 8, !range !9, !noundef !2
  %33 = getelementptr inbounds { i64, i64 }, { i64, i64 }* %3, i32 0, i32 1
  %34 = load i64, i64* %33, align 8
  %35 = insertvalue { i64, i64 } undef, i64 %32, 0
  %36 = insertvalue { i64, i64 } %35, i64 %34, 1
  ret { i64, i64 } %36
}

; core::num::nonzero::NonZeroUsize::new_unchecked
; Function Attrs: inlinehint nonlazybind uwtable
define internal i64 @_ZN4core3num7nonzero12NonZeroUsize13new_unchecked17h33b0b48c0ca0c008E(i64 %n) unnamed_addr #0 {
start:
  %0 = alloca i64, align 8
  store i64 %n, i64* %0, align 8
  %1 = load i64, i64* %0, align 8, !range !7, !noundef !2
  ret i64 %1
}

; core::num::nonzero::NonZeroUsize::get
; Function Attrs: inlinehint nonlazybind uwtable
define internal i64 @_ZN4core3num7nonzero12NonZeroUsize3get17h2961405446f5cc84E(i64 %self) unnamed_addr #0 {
start:
  ret i64 %self
}

; core::ptr::slice_from_raw_parts_mut
; Function Attrs: inlinehint nonlazybind uwtable
define { [0 x i8]*, i64 } @_ZN4core3ptr24slice_from_raw_parts_mut17h0d7999eebfe002cbE(i8* %data, i64 %len) unnamed_addr #0 {
start:
  %0 = bitcast i8* %data to {}*
  br label %bb1

bb1:                                              ; preds = %start
; call core::ptr::metadata::from_raw_parts_mut
  %1 = call { [0 x i8]*, i64 } @_ZN4core3ptr8metadata18from_raw_parts_mut17hb2220dcb5c96fcbeE({}* %0, i64 %len)
  %2 = extractvalue { [0 x i8]*, i64 } %1, 0
  %3 = extractvalue { [0 x i8]*, i64 } %1, 1
  br label %bb2

bb2:                                              ; preds = %bb1
  %4 = insertvalue { [0 x i8]*, i64 } undef, [0 x i8]* %2, 0
  %5 = insertvalue { [0 x i8]*, i64 } %4, i64 %3, 1
  ret { [0 x i8]*, i64 } %5
}

; core::ptr::drop_in_place<alloc::string::String>
; Function Attrs: nonlazybind uwtable
define void @"_ZN4core3ptr42drop_in_place$LT$alloc..string..String$GT$17hd0f8d72320ffb117E"(%"alloc::string::String"* %_1) unnamed_addr #1 {
start:
  %0 = bitcast %"alloc::string::String"* %_1 to %"alloc::vec::Vec<u8>"*
; call core::ptr::drop_in_place<alloc::vec::Vec<u8>>
  call void @"_ZN4core3ptr46drop_in_place$LT$alloc..vec..Vec$LT$u8$GT$$GT$17hcdfb37f6afddd377E"(%"alloc::vec::Vec<u8>"* %0)
  br label %bb1

bb1:                                              ; preds = %start
  ret void
}

; core::ptr::drop_in_place<alloc::vec::Vec<u8>>
; Function Attrs: nonlazybind uwtable
define void @"_ZN4core3ptr46drop_in_place$LT$alloc..vec..Vec$LT$u8$GT$$GT$17hcdfb37f6afddd377E"(%"alloc::vec::Vec<u8>"* %_1) unnamed_addr #1 personality i32 (i32, i32, i64, %"unwind::libunwind::_Unwind_Exception"*, %"unwind::libunwind::_Unwind_Context"*)* @rust_eh_personality {
start:
  %0 = alloca { i8*, i32 }, align 8
; invoke <alloc::vec::Vec<T,A> as core::ops::drop::Drop>::drop
  invoke void @"_ZN70_$LT$alloc..vec..Vec$LT$T$C$A$GT$$u20$as$u20$core..ops..drop..Drop$GT$4drop17h5a60b33bc9cd96ecE"(%"alloc::vec::Vec<u8>"* align 8 %_1)
          to label %bb4 unwind label %cleanup

bb3:                                              ; preds = %cleanup
  %1 = bitcast %"alloc::vec::Vec<u8>"* %_1 to { i8*, i64 }*
; invoke core::ptr::drop_in_place<alloc::raw_vec::RawVec<u8>>
  invoke void @"_ZN4core3ptr53drop_in_place$LT$alloc..raw_vec..RawVec$LT$u8$GT$$GT$17hb689b58faca7dc82E"({ i8*, i64 }* %1) #11
          to label %bb1 unwind label %abort

cleanup:                                          ; preds = %start
  %2 = landingpad { i8*, i32 }
          cleanup
  %3 = extractvalue { i8*, i32 } %2, 0
  %4 = extractvalue { i8*, i32 } %2, 1
  %5 = getelementptr inbounds { i8*, i32 }, { i8*, i32 }* %0, i32 0, i32 0
  store i8* %3, i8** %5, align 8
  %6 = getelementptr inbounds { i8*, i32 }, { i8*, i32 }* %0, i32 0, i32 1
  store i32 %4, i32* %6, align 8
  br label %bb3

bb4:                                              ; preds = %start
  %7 = bitcast %"alloc::vec::Vec<u8>"* %_1 to { i8*, i64 }*
; call core::ptr::drop_in_place<alloc::raw_vec::RawVec<u8>>
  call void @"_ZN4core3ptr53drop_in_place$LT$alloc..raw_vec..RawVec$LT$u8$GT$$GT$17hb689b58faca7dc82E"({ i8*, i64 }* %7)
  br label %bb2

abort:                                            ; preds = %bb3
  %8 = landingpad { i8*, i32 }
          cleanup
; call core::panicking::panic_no_unwind
  call void @_ZN4core9panicking15panic_no_unwind17h911e42a789e66c4eE() #12
  unreachable

bb1:                                              ; preds = %bb3
  %9 = bitcast { i8*, i32 }* %0 to i8**
  %10 = load i8*, i8** %9, align 8
  %11 = getelementptr inbounds { i8*, i32 }, { i8*, i32 }* %0, i32 0, i32 1
  %12 = load i32, i32* %11, align 8
  %13 = insertvalue { i8*, i32 } undef, i8* %10, 0
  %14 = insertvalue { i8*, i32 } %13, i32 %12, 1
  resume { i8*, i32 } %14

bb2:                                              ; preds = %bb4
  ret void
}

; core::ptr::drop_in_place<alloc::raw_vec::RawVec<u8>>
; Function Attrs: nonlazybind uwtable
define void @"_ZN4core3ptr53drop_in_place$LT$alloc..raw_vec..RawVec$LT$u8$GT$$GT$17hb689b58faca7dc82E"({ i8*, i64 }* %_1) unnamed_addr #1 {
start:
; call <alloc::raw_vec::RawVec<T,A> as core::ops::drop::Drop>::drop
  call void @"_ZN77_$LT$alloc..raw_vec..RawVec$LT$T$C$A$GT$$u20$as$u20$core..ops..drop..Drop$GT$4drop17h3ece8b386cda0ce0E"({ i8*, i64 }* align 8 %_1)
  br label %bb1

bb1:                                              ; preds = %start
  ret void
}

; core::ptr::unique::Unique<T>::cast
; Function Attrs: inlinehint nonlazybind uwtable
define i8* @"_ZN4core3ptr6unique15Unique$LT$T$GT$4cast17h5fa3f0df8da7f865E"(i8* %self) unnamed_addr #0 {
start:
; call core::ptr::non_null::NonNull<T>::cast
  %_2 = call i8* @"_ZN4core3ptr8non_null16NonNull$LT$T$GT$4cast17h8023309c33291c30E"(i8* %self)
  br label %bb1

bb1:                                              ; preds = %start
; call <core::ptr::unique::Unique<T> as core::convert::From<core::ptr::non_null::NonNull<T>>>::from
  %0 = call i8* @"_ZN119_$LT$core..ptr..unique..Unique$LT$T$GT$$u20$as$u20$core..convert..From$LT$core..ptr..non_null..NonNull$LT$T$GT$$GT$$GT$4from17hbc17410b09f8a324E"(i8* %_2)
  br label %bb2

bb2:                                              ; preds = %bb1
  ret i8* %0
}

; core::ptr::unique::Unique<T>::as_ptr
; Function Attrs: inlinehint nonlazybind uwtable
define i8* @"_ZN4core3ptr6unique15Unique$LT$T$GT$6as_ptr17h0502e2cb702cad0bE"(i8* %self) unnamed_addr #0 {
start:
; call core::ptr::non_null::NonNull<T>::as_ptr
  %0 = call i8* @"_ZN4core3ptr8non_null16NonNull$LT$T$GT$6as_ptr17h469ba1ae5dcb7ddeE"(i8* %self)
  br label %bb1

bb1:                                              ; preds = %start
  ret i8* %0
}

; core::ptr::mut_ptr::<impl *mut T>::guaranteed_eq
; Function Attrs: inlinehint nonlazybind uwtable
define zeroext i1 @"_ZN4core3ptr7mut_ptr31_$LT$impl$u20$$BP$mut$u20$T$GT$13guaranteed_eq17hbdf792cb49c919b7E"(i8* %self, i8* %other) unnamed_addr #0 {
start:
  %0 = alloca i8, align 1
  %1 = icmp eq i8* %self, %other
  %2 = zext i1 %1 to i8
  store i8 %2, i8* %0, align 1
  %3 = load i8, i8* %0, align 1, !range !5, !noundef !2
  %4 = trunc i8 %3 to i1
  br label %bb1

bb1:                                              ; preds = %start
  ret i1 %4
}

; core::ptr::mut_ptr::<impl *mut T>::is_null
; Function Attrs: inlinehint nonlazybind uwtable
define zeroext i1 @"_ZN4core3ptr7mut_ptr31_$LT$impl$u20$$BP$mut$u20$T$GT$7is_null17hd4b0316df90028e9E"(i8* %self) unnamed_addr #0 {
start:
  br label %bb1

bb1:                                              ; preds = %start
; call core::ptr::mut_ptr::<impl *mut T>::guaranteed_eq
  %0 = call zeroext i1 @"_ZN4core3ptr7mut_ptr31_$LT$impl$u20$$BP$mut$u20$T$GT$13guaranteed_eq17hbdf792cb49c919b7E"(i8* %self, i8* null)
  br label %bb2

bb2:                                              ; preds = %bb1
  ret i1 %0
}

; core::ptr::metadata::from_raw_parts_mut
; Function Attrs: inlinehint nonlazybind uwtable
define { [0 x i8]*, i64 } @_ZN4core3ptr8metadata18from_raw_parts_mut17hb2220dcb5c96fcbeE({}* %data_address, i64 %metadata) unnamed_addr #0 {
start:
  %_4 = alloca { i8*, i64 }, align 8
  %_3 = alloca %"core::ptr::metadata::PtrRepr<[u8]>", align 8
  %0 = bitcast { i8*, i64 }* %_4 to {}**
  store {}* %data_address, {}** %0, align 8
  %1 = getelementptr inbounds { i8*, i64 }, { i8*, i64 }* %_4, i32 0, i32 1
  store i64 %metadata, i64* %1, align 8
  %2 = bitcast %"core::ptr::metadata::PtrRepr<[u8]>"* %_3 to { i8*, i64 }*
  %3 = getelementptr inbounds { i8*, i64 }, { i8*, i64 }* %_4, i32 0, i32 0
  %4 = load i8*, i8** %3, align 8
  %5 = getelementptr inbounds { i8*, i64 }, { i8*, i64 }* %_4, i32 0, i32 1
  %6 = load i64, i64* %5, align 8
  %7 = getelementptr inbounds { i8*, i64 }, { i8*, i64 }* %2, i32 0, i32 0
  store i8* %4, i8** %7, align 8
  %8 = getelementptr inbounds { i8*, i64 }, { i8*, i64 }* %2, i32 0, i32 1
  store i64 %6, i64* %8, align 8
  %9 = bitcast %"core::ptr::metadata::PtrRepr<[u8]>"* %_3 to { [0 x i8]*, i64 }*
  %10 = getelementptr inbounds { [0 x i8]*, i64 }, { [0 x i8]*, i64 }* %9, i32 0, i32 0
  %11 = load [0 x i8]*, [0 x i8]** %10, align 8
  %12 = getelementptr inbounds { [0 x i8]*, i64 }, { [0 x i8]*, i64 }* %9, i32 0, i32 1
  %13 = load i64, i64* %12, align 8
  %14 = insertvalue { [0 x i8]*, i64 } undef, [0 x i8]* %11, 0
  %15 = insertvalue { [0 x i8]*, i64 } %14, i64 %13, 1
  ret { [0 x i8]*, i64 } %15
}

; core::ptr::non_null::NonNull<T>::new_unchecked
; Function Attrs: inlinehint nonlazybind uwtable
define i8* @"_ZN4core3ptr8non_null16NonNull$LT$T$GT$13new_unchecked17hc7ad126e4d8dfb24E"(i8* %ptr) unnamed_addr #0 {
start:
  %0 = alloca i8*, align 8
  store i8* %ptr, i8** %0, align 8
  %1 = load i8*, i8** %0, align 8, !nonnull !2, !noundef !2
  ret i8* %1
}

; core::ptr::non_null::NonNull<T>::cast
; Function Attrs: inlinehint nonlazybind uwtable
define i8* @"_ZN4core3ptr8non_null16NonNull$LT$T$GT$4cast17h8023309c33291c30E"(i8* %self) unnamed_addr #0 {
start:
; call core::ptr::non_null::NonNull<T>::as_ptr
  %_3 = call i8* @"_ZN4core3ptr8non_null16NonNull$LT$T$GT$6as_ptr17h469ba1ae5dcb7ddeE"(i8* %self)
  br label %bb1

bb1:                                              ; preds = %start
; call core::ptr::non_null::NonNull<T>::new_unchecked
  %0 = call i8* @"_ZN4core3ptr8non_null16NonNull$LT$T$GT$13new_unchecked17hc7ad126e4d8dfb24E"(i8* %_3)
  br label %bb2

bb2:                                              ; preds = %bb1
  ret i8* %0
}

; core::ptr::non_null::NonNull<T>::as_ptr
; Function Attrs: inlinehint nonlazybind uwtable
define i8* @"_ZN4core3ptr8non_null16NonNull$LT$T$GT$6as_ptr17h469ba1ae5dcb7ddeE"(i8* %self) unnamed_addr #0 {
start:
  ret i8* %self
}

; core::hint::unreachable_unchecked
; Function Attrs: inlinehint noreturn nonlazybind uwtable
define internal void @_ZN4core4hint21unreachable_unchecked17h85560e8a6d87bba6E() unnamed_addr #2 {
start:
  unreachable
}

; core::alloc::layout::Layout::from_size_align_unchecked
; Function Attrs: inlinehint nonlazybind uwtable
define internal { i64, i64 } @_ZN4core5alloc6layout6Layout25from_size_align_unchecked17h419715301eed65b8E(i64 %size, i64 %align) unnamed_addr #0 {
start:
  %0 = alloca { i64, i64 }, align 8
; call core::mem::valid_align::ValidAlign::new_unchecked
  %_4 = call i64 @_ZN4core3mem11valid_align10ValidAlign13new_unchecked17h4655fac9889fcc58E(i64 %align), !range !8
  br label %bb1

bb1:                                              ; preds = %start
  %1 = bitcast { i64, i64 }* %0 to i64*
  store i64 %size, i64* %1, align 8
  %2 = getelementptr inbounds { i64, i64 }, { i64, i64 }* %0, i32 0, i32 1
  store i64 %_4, i64* %2, align 8
  %3 = getelementptr inbounds { i64, i64 }, { i64, i64 }* %0, i32 0, i32 0
  %4 = load i64, i64* %3, align 8
  %5 = getelementptr inbounds { i64, i64 }, { i64, i64 }* %0, i32 0, i32 1
  %6 = load i64, i64* %5, align 8, !range !8, !noundef !2
  %7 = insertvalue { i64, i64 } undef, i64 %4, 0
  %8 = insertvalue { i64, i64 } %7, i64 %6, 1
  ret { i64, i64 } %8
}

; core::alloc::layout::Layout::size
; Function Attrs: inlinehint nonlazybind uwtable
define internal i64 @_ZN4core5alloc6layout6Layout4size17h26facd415fa46c0aE({ i64, i64 }* align 8 %self) unnamed_addr #0 {
start:
  %0 = bitcast { i64, i64 }* %self to i64*
  %1 = load i64, i64* %0, align 8
  ret i64 %1
}

; core::alloc::layout::Layout::align
; Function Attrs: inlinehint nonlazybind uwtable
define internal i64 @_ZN4core5alloc6layout6Layout5align17hcb048029b9f3d85dE({ i64, i64 }* align 8 %self) unnamed_addr #0 {
start:
  %0 = getelementptr inbounds { i64, i64 }, { i64, i64 }* %self, i32 0, i32 1
  %_3 = load i64, i64* %0, align 8, !range !8, !noundef !2
; call core::mem::valid_align::ValidAlign::as_nonzero
  %_2 = call i64 @_ZN4core3mem11valid_align10ValidAlign10as_nonzero17h770f1a13807e9b79E(i64 %_3), !range !7
  br label %bb1

bb1:                                              ; preds = %start
; call core::num::nonzero::NonZeroUsize::get
  %1 = call i64 @_ZN4core3num7nonzero12NonZeroUsize3get17h2961405446f5cc84E(i64 %_2)
  br label %bb2

bb2:                                              ; preds = %bb1
  ret i64 %1
}

; core::alloc::layout::Layout::array
; Function Attrs: inlinehint nonlazybind uwtable
define { i64, i64 } @_ZN4core5alloc6layout6Layout5array17h0ad37ac515961b8cE(i64 %n) unnamed_addr #0 {
start:
  %_3 = alloca { i64, i64 }, align 8
  %0 = alloca { i64, i64 }, align 8
  br label %bb1

bb1:                                              ; preds = %start
; call core::num::<impl usize>::checked_mul
  %1 = call { i64, i64 } @"_ZN4core3num23_$LT$impl$u20$usize$GT$11checked_mul17h4dbd42b75b5a88f3E"(i64 1, i64 %n)
  %_5.0 = extractvalue { i64, i64 } %1, 0
  %_5.1 = extractvalue { i64, i64 } %1, 1
  br label %bb2

bb2:                                              ; preds = %bb1
; call core::option::Option<T>::ok_or
  %2 = call { i64, i64 } @"_ZN4core6option15Option$LT$T$GT$5ok_or17h3ceeee281f23744bE"(i64 %_5.0, i64 %_5.1)
  %_4.0 = extractvalue { i64, i64 } %2, 0
  %_4.1 = extractvalue { i64, i64 } %2, 1
  br label %bb3

bb3:                                              ; preds = %bb2
; call <core::result::Result<T,E> as core::ops::try_trait::Try>::branch
  %3 = call { i64, i64 } @"_ZN79_$LT$core..result..Result$LT$T$C$E$GT$$u20$as$u20$core..ops..try_trait..Try$GT$6branch17hcaeadd5f25bad1e8E"(i64 %_4.0, i64 %_4.1)
  store { i64, i64 } %3, { i64, i64 }* %_3, align 8
  br label %bb4

bb4:                                              ; preds = %bb3
  %4 = bitcast { i64, i64 }* %_3 to i64*
  %_9 = load i64, i64* %4, align 8, !range !9, !noundef !2
  switch i64 %_9, label %bb6 [
    i64 0, label %bb5
    i64 1, label %bb7
  ]

bb6:                                              ; preds = %bb4
  unreachable

bb5:                                              ; preds = %bb4
  %5 = getelementptr inbounds { i64, i64 }, { i64, i64 }* %_3, i32 0, i32 1
  %val = load i64, i64* %5, align 8
  br label %bb9

bb7:                                              ; preds = %bb4
; call <core::result::Result<T,F> as core::ops::try_trait::FromResidual<core::result::Result<core::convert::Infallible,E>>>::from_residual
  %6 = call { i64, i64 } @"_ZN153_$LT$core..result..Result$LT$T$C$F$GT$$u20$as$u20$core..ops..try_trait..FromResidual$LT$core..result..Result$LT$core..convert..Infallible$C$E$GT$$GT$$GT$13from_residual17h32685b3485a753f7E"(%"core::panic::location::Location"* align 8 bitcast (<{ i8*, [16 x i8] }>* @alloc95 to %"core::panic::location::Location"*))
  store { i64, i64 } %6, { i64, i64 }* %0, align 8
  br label %bb8

bb8:                                              ; preds = %bb7
  br label %bb11

bb11:                                             ; preds = %bb10, %bb8
  %7 = getelementptr inbounds { i64, i64 }, { i64, i64 }* %0, i32 0, i32 0
  %8 = load i64, i64* %7, align 8
  %9 = getelementptr inbounds { i64, i64 }, { i64, i64 }* %0, i32 0, i32 1
  %10 = load i64, i64* %9, align 8, !range !3, !noundef !2
  %11 = insertvalue { i64, i64 } undef, i64 %8, 0
  %12 = insertvalue { i64, i64 } %11, i64 %10, 1
  ret { i64, i64 } %12

bb9:                                              ; preds = %bb5
; call core::alloc::layout::Layout::from_size_align_unchecked
  %13 = call { i64, i64 } @_ZN4core5alloc6layout6Layout25from_size_align_unchecked17h419715301eed65b8E(i64 %val, i64 1)
  %_13.0 = extractvalue { i64, i64 } %13, 0
  %_13.1 = extractvalue { i64, i64 } %13, 1
  br label %bb10

bb10:                                             ; preds = %bb9
  %14 = getelementptr inbounds { i64, i64 }, { i64, i64 }* %0, i32 0, i32 0
  store i64 %_13.0, i64* %14, align 8
  %15 = getelementptr inbounds { i64, i64 }, { i64, i64 }* %0, i32 0, i32 1
  store i64 %_13.1, i64* %15, align 8
  br label %bb11
}

; core::option::Option<T>::ok_or
; Function Attrs: inlinehint nonlazybind uwtable
define { i64, i64 } @"_ZN4core6option15Option$LT$T$GT$5ok_or17h3ceeee281f23744bE"(i64 %0, i64 %1) unnamed_addr #0 {
start:
  %_7 = alloca i8, align 1
  %2 = alloca { i64, i64 }, align 8
  %self = alloca { i64, i64 }, align 8
  %3 = getelementptr inbounds { i64, i64 }, { i64, i64 }* %self, i32 0, i32 0
  store i64 %0, i64* %3, align 8
  %4 = getelementptr inbounds { i64, i64 }, { i64, i64 }* %self, i32 0, i32 1
  store i64 %1, i64* %4, align 8
  store i8 0, i8* %_7, align 1
  store i8 1, i8* %_7, align 1
  %5 = bitcast { i64, i64 }* %self to i64*
  %_3 = load i64, i64* %5, align 8, !range !9, !noundef !2
  switch i64 %_3, label %bb2 [
    i64 0, label %bb1
    i64 1, label %bb3
  ]

bb2:                                              ; preds = %start
  unreachable

bb1:                                              ; preds = %start
  store i8 0, i8* %_7, align 1
  %6 = getelementptr inbounds { i64, i64 }, { i64, i64 }* %2, i32 0, i32 1
  %7 = bitcast i64* %6 to %"core::alloc::layout::LayoutError"*
  %8 = bitcast { i64, i64 }* %2 to i64*
  store i64 1, i64* %8, align 8
  br label %bb6

bb3:                                              ; preds = %start
  %9 = getelementptr inbounds { i64, i64 }, { i64, i64 }* %self, i32 0, i32 1
  %v = load i64, i64* %9, align 8
  %10 = getelementptr inbounds { i64, i64 }, { i64, i64 }* %2, i32 0, i32 1
  store i64 %v, i64* %10, align 8
  %11 = bitcast { i64, i64 }* %2 to i64*
  store i64 0, i64* %11, align 8
  br label %bb6

bb6:                                              ; preds = %bb1, %bb3
  %12 = load i8, i8* %_7, align 1, !range !5, !noundef !2
  %13 = trunc i8 %12 to i1
  br i1 %13, label %bb5, label %bb4

bb4:                                              ; preds = %bb5, %bb6
  %14 = getelementptr inbounds { i64, i64 }, { i64, i64 }* %2, i32 0, i32 0
  %15 = load i64, i64* %14, align 8, !range !9, !noundef !2
  %16 = getelementptr inbounds { i64, i64 }, { i64, i64 }* %2, i32 0, i32 1
  %17 = load i64, i64* %16, align 8
  %18 = insertvalue { i64, i64 } undef, i64 %15, 0
  %19 = insertvalue { i64, i64 } %18, i64 %17, 1
  ret { i64, i64 } %19

bb5:                                              ; preds = %bb6
  br label %bb4
}

; core::result::Result<T,E>::unwrap_unchecked
; Function Attrs: inlinehint nonlazybind uwtable
define { i64, i64 } @"_ZN4core6result19Result$LT$T$C$E$GT$16unwrap_unchecked17hc083392c3e6003edE"(i64 %0, i64 %1, %"core::panic::location::Location"* align 8 %2) unnamed_addr #0 personality i32 (i32, i32, i64, %"unwind::libunwind::_Unwind_Exception"*, %"unwind::libunwind::_Unwind_Context"*)* @rust_eh_personality {
start:
  %3 = alloca { i8*, i32 }, align 8
  %_4 = alloca i8, align 1
  %self = alloca { i64, i64 }, align 8
  %4 = getelementptr inbounds { i64, i64 }, { i64, i64 }* %self, i32 0, i32 0
  store i64 %0, i64* %4, align 8
  %5 = getelementptr inbounds { i64, i64 }, { i64, i64 }* %self, i32 0, i32 1
  store i64 %1, i64* %5, align 8
  store i8 0, i8* %_4, align 1
  store i8 1, i8* %_4, align 1
  %6 = getelementptr inbounds { i64, i64 }, { i64, i64 }* %self, i32 0, i32 1
  %7 = load i64, i64* %6, align 8, !range !3, !noundef !2
  %8 = icmp eq i64 %7, 0
  %_2 = select i1 %8, i64 1, i64 0
  switch i64 %_2, label %bb2 [
    i64 0, label %bb3
    i64 1, label %bb1
  ]

bb2:                                              ; preds = %start
  unreachable

bb3:                                              ; preds = %start
  store i8 0, i8* %_4, align 1
  %9 = getelementptr inbounds { i64, i64 }, { i64, i64 }* %self, i32 0, i32 0
  %t.0 = load i64, i64* %9, align 8
  %10 = getelementptr inbounds { i64, i64 }, { i64, i64 }* %self, i32 0, i32 1
  %t.1 = load i64, i64* %10, align 8, !range !8, !noundef !2
  %11 = getelementptr inbounds { i64, i64 }, { i64, i64 }* %self, i32 0, i32 1
  %12 = load i64, i64* %11, align 8, !range !3, !noundef !2
  %13 = icmp eq i64 %12, 0
  %_5 = select i1 %13, i64 1, i64 0
  %14 = icmp eq i64 %_5, 0
  br i1 %14, label %bb5, label %bb6

bb1:                                              ; preds = %start
; invoke core::hint::unreachable_unchecked
  invoke void @_ZN4core4hint21unreachable_unchecked17h85560e8a6d87bba6E() #10
          to label %unreachable unwind label %cleanup

bb10:                                             ; preds = %cleanup
  %15 = getelementptr inbounds { i64, i64 }, { i64, i64 }* %self, i32 0, i32 1
  %16 = load i64, i64* %15, align 8, !range !3, !noundef !2
  %17 = icmp eq i64 %16, 0
  %_6 = select i1 %17, i64 1, i64 0
  %18 = icmp eq i64 %_6, 0
  br i1 %18, label %bb7, label %bb9

cleanup:                                          ; preds = %bb1
  %19 = landingpad { i8*, i32 }
          cleanup
  %20 = extractvalue { i8*, i32 } %19, 0
  %21 = extractvalue { i8*, i32 } %19, 1
  %22 = getelementptr inbounds { i8*, i32 }, { i8*, i32 }* %3, i32 0, i32 0
  store i8* %20, i8** %22, align 8
  %23 = getelementptr inbounds { i8*, i32 }, { i8*, i32 }* %3, i32 0, i32 1
  store i32 %21, i32* %23, align 8
  br label %bb10

unreachable:                                      ; preds = %bb1
  unreachable

bb7:                                              ; preds = %bb10
  %24 = load i8, i8* %_4, align 1, !range !5, !noundef !2
  %25 = trunc i8 %24 to i1
  br i1 %25, label %bb8, label %bb4

bb9:                                              ; preds = %bb10
  br label %bb4

bb4:                                              ; preds = %bb8, %bb7, %bb9
  %26 = bitcast { i8*, i32 }* %3 to i8**
  %27 = load i8*, i8** %26, align 8
  %28 = getelementptr inbounds { i8*, i32 }, { i8*, i32 }* %3, i32 0, i32 1
  %29 = load i32, i32* %28, align 8
  %30 = insertvalue { i8*, i32 } undef, i8* %27, 0
  %31 = insertvalue { i8*, i32 } %30, i32 %29, 1
  resume { i8*, i32 } %31

bb8:                                              ; preds = %bb7
  br label %bb4

bb5:                                              ; preds = %bb6, %bb3
  %32 = insertvalue { i64, i64 } undef, i64 %t.0, 0
  %33 = insertvalue { i64, i64 } %32, i64 %t.1, 1
  ret { i64, i64 } %33

bb6:                                              ; preds = %bb3
  br label %bb5
}

; <T as core::convert::From<T>>::from
; Function Attrs: nonlazybind uwtable
define void @"_ZN50_$LT$T$u20$as$u20$core..convert..From$LT$T$GT$$GT$4from17hac69cbf54d1e128dE"() unnamed_addr #1 {
start:
  ret void
}

; <T as core::convert::Into<U>>::into
; Function Attrs: nonlazybind uwtable
define i8* @"_ZN50_$LT$T$u20$as$u20$core..convert..Into$LT$U$GT$$GT$4into17ha923146afdbe9fcaE"(i8* %self) unnamed_addr #1 {
start:
; call <core::ptr::non_null::NonNull<T> as core::convert::From<core::ptr::unique::Unique<T>>>::from
  %0 = call i8* @"_ZN119_$LT$core..ptr..non_null..NonNull$LT$T$GT$$u20$as$u20$core..convert..From$LT$core..ptr..unique..Unique$LT$T$GT$$GT$$GT$4from17h273d50390c726991E"(i8* %self)
  br label %bb1

bb1:                                              ; preds = %start
  ret i8* %0
}

; alloc::vec::Vec<T,A>::as_mut_ptr
; Function Attrs: inlinehint nonlazybind uwtable
define i8* @"_ZN5alloc3vec16Vec$LT$T$C$A$GT$10as_mut_ptr17h30e17a77429c8252E"(%"alloc::vec::Vec<u8>"* align 8 %self) unnamed_addr #0 {
start:
  %_2 = bitcast %"alloc::vec::Vec<u8>"* %self to { i8*, i64 }*
; call alloc::raw_vec::RawVec<T,A>::ptr
  %ptr = call i8* @"_ZN5alloc7raw_vec19RawVec$LT$T$C$A$GT$3ptr17h45671f2a8e7b6afcE"({ i8*, i64 }* align 8 %_2)
  br label %bb1

bb1:                                              ; preds = %start
; call core::ptr::mut_ptr::<impl *mut T>::is_null
  %_5 = call zeroext i1 @"_ZN4core3ptr7mut_ptr31_$LT$impl$u20$$BP$mut$u20$T$GT$7is_null17hd4b0316df90028e9E"(i8* %ptr)
  br label %bb2

bb2:                                              ; preds = %bb1
  %_4 = xor i1 %_5, true
  call void @llvm.assume(i1 %_4)
  br label %bb3

bb3:                                              ; preds = %bb2
  ret i8* %ptr
}

; alloc::alloc::dealloc
; Function Attrs: inlinehint nonlazybind uwtable
define internal void @_ZN5alloc5alloc7dealloc17hc268677f1401e629E(i8* %ptr, i64 %0, i64 %1) unnamed_addr #0 {
start:
  %layout = alloca { i64, i64 }, align 8
  %2 = getelementptr inbounds { i64, i64 }, { i64, i64 }* %layout, i32 0, i32 0
  store i64 %0, i64* %2, align 8
  %3 = getelementptr inbounds { i64, i64 }, { i64, i64 }* %layout, i32 0, i32 1
  store i64 %1, i64* %3, align 8
; call core::alloc::layout::Layout::size
  %_4 = call i64 @_ZN4core5alloc6layout6Layout4size17h26facd415fa46c0aE({ i64, i64 }* align 8 %layout)
  br label %bb1

bb1:                                              ; preds = %start
; call core::alloc::layout::Layout::align
  %_6 = call i64 @_ZN4core5alloc6layout6Layout5align17hcb048029b9f3d85dE({ i64, i64 }* align 8 %layout)
  br label %bb2

bb2:                                              ; preds = %bb1
  call void @__rust_dealloc(i8* %ptr, i64 %_4, i64 %_6) #13
  br label %bb3

bb3:                                              ; preds = %bb2
  ret void
}

; alloc::raw_vec::RawVec<T,A>::current_memory
; Function Attrs: nonlazybind uwtable
define void @"_ZN5alloc7raw_vec19RawVec$LT$T$C$A$GT$14current_memory17h9c7b0d73724c7dbdE"(%"core::option::Option<(core::ptr::non_null::NonNull<u8>, core::alloc::layout::Layout)>"* sret(%"core::option::Option<(core::ptr::non_null::NonNull<u8>, core::alloc::layout::Layout)>") %0, { i8*, i64 }* align 8 %self) unnamed_addr #1 {
start:
  %_9 = alloca { i8*, { i64, i64 } }, align 8
  %_2 = alloca i8, align 1
  br label %bb4

bb4:                                              ; preds = %start
  %1 = icmp eq i64 1, 0
  br i1 %1, label %bb1, label %bb2

bb1:                                              ; preds = %bb4
  store i8 1, i8* %_2, align 1
  br label %bb3

bb2:                                              ; preds = %bb4
  %2 = getelementptr inbounds { i8*, i64 }, { i8*, i64 }* %self, i32 0, i32 1
  %_5 = load i64, i64* %2, align 8
  %_4 = icmp eq i64 %_5, 0
  %3 = zext i1 %_4 to i8
  store i8 %3, i8* %_2, align 1
  br label %bb3

bb3:                                              ; preds = %bb1, %bb2
  %4 = load i8, i8* %_2, align 1, !range !5, !noundef !2
  %5 = trunc i8 %4 to i1
  br i1 %5, label %bb5, label %bb6

bb6:                                              ; preds = %bb3
  %6 = getelementptr inbounds { i8*, i64 }, { i8*, i64 }* %self, i32 0, i32 1
  %_8 = load i64, i64* %6, align 8
; call core::alloc::layout::Layout::array
  %7 = call { i64, i64 } @_ZN4core5alloc6layout6Layout5array17h0ad37ac515961b8cE(i64 %_8)
  %_7.0 = extractvalue { i64, i64 } %7, 0
  %_7.1 = extractvalue { i64, i64 } %7, 1
  br label %bb7

bb5:                                              ; preds = %bb3
  %8 = getelementptr inbounds %"core::option::Option<(core::ptr::non_null::NonNull<u8>, core::alloc::layout::Layout)>", %"core::option::Option<(core::ptr::non_null::NonNull<u8>, core::alloc::layout::Layout)>"* %0, i32 0, i32 1
  store i64 0, i64* %8, align 8
  br label %bb11

bb11:                                             ; preds = %bb10, %bb5
  ret void

bb7:                                              ; preds = %bb6
; call core::result::Result<T,E>::unwrap_unchecked
  %9 = call { i64, i64 } @"_ZN4core6result19Result$LT$T$C$E$GT$16unwrap_unchecked17hc083392c3e6003edE"(i64 %_7.0, i64 %_7.1, %"core::panic::location::Location"* align 8 bitcast (<{ i8*, [16 x i8] }>* @alloc97 to %"core::panic::location::Location"*))
  %layout.0 = extractvalue { i64, i64 } %9, 0
  %layout.1 = extractvalue { i64, i64 } %9, 1
  br label %bb8

bb8:                                              ; preds = %bb7
  %10 = bitcast { i8*, i64 }* %self to i8**
  %_12 = load i8*, i8** %10, align 8, !nonnull !2, !noundef !2
; call core::ptr::unique::Unique<T>::cast
  %_11 = call i8* @"_ZN4core3ptr6unique15Unique$LT$T$GT$4cast17h5fa3f0df8da7f865E"(i8* %_12)
  br label %bb9

bb9:                                              ; preds = %bb8
; call <T as core::convert::Into<U>>::into
  %_10 = call i8* @"_ZN50_$LT$T$u20$as$u20$core..convert..Into$LT$U$GT$$GT$4into17ha923146afdbe9fcaE"(i8* %_11)
  br label %bb10

bb10:                                             ; preds = %bb9
  %11 = bitcast { i8*, { i64, i64 } }* %_9 to i8**
  store i8* %_10, i8** %11, align 8
  %12 = getelementptr inbounds { i8*, { i64, i64 } }, { i8*, { i64, i64 } }* %_9, i32 0, i32 1
  %13 = getelementptr inbounds { i64, i64 }, { i64, i64 }* %12, i32 0, i32 0
  store i64 %layout.0, i64* %13, align 8
  %14 = getelementptr inbounds { i64, i64 }, { i64, i64 }* %12, i32 0, i32 1
  store i64 %layout.1, i64* %14, align 8
  %15 = bitcast %"core::option::Option<(core::ptr::non_null::NonNull<u8>, core::alloc::layout::Layout)>"* %0 to %"core::option::Option<(core::ptr::non_null::NonNull<u8>, core::alloc::layout::Layout)>::Some"*
  %16 = bitcast %"core::option::Option<(core::ptr::non_null::NonNull<u8>, core::alloc::layout::Layout)>::Some"* %15 to { i8*, { i64, i64 } }*
  %17 = bitcast { i8*, { i64, i64 } }* %16 to i8*
  %18 = bitcast { i8*, { i64, i64 } }* %_9 to i8*
  call void @llvm.memcpy.p0i8.p0i8.i64(i8* align 8 %17, i8* align 8 %18, i64 24, i1 false)
  br label %bb11
}

; alloc::raw_vec::RawVec<T,A>::ptr
; Function Attrs: inlinehint nonlazybind uwtable
define i8* @"_ZN5alloc7raw_vec19RawVec$LT$T$C$A$GT$3ptr17h45671f2a8e7b6afcE"({ i8*, i64 }* align 8 %self) unnamed_addr #0 {
start:
  %0 = bitcast { i8*, i64 }* %self to i8**
  %_2 = load i8*, i8** %0, align 8, !nonnull !2, !noundef !2
; call core::ptr::unique::Unique<T>::as_ptr
  %1 = call i8* @"_ZN4core3ptr6unique15Unique$LT$T$GT$6as_ptr17h0502e2cb702cad0bE"(i8* %_2)
  br label %bb1

bb1:                                              ; preds = %start
  ret i8* %1
}

; <alloc::alloc::Global as core::alloc::Allocator>::deallocate
; Function Attrs: inlinehint nonlazybind uwtable
define internal void @"_ZN63_$LT$alloc..alloc..Global$u20$as$u20$core..alloc..Allocator$GT$10deallocate17h58585c3a10cf613dE"(%"alloc::alloc::Global"* align 1 %self, i8* %ptr, i64 %0, i64 %1) unnamed_addr #0 {
start:
  %layout = alloca { i64, i64 }, align 8
  %2 = getelementptr inbounds { i64, i64 }, { i64, i64 }* %layout, i32 0, i32 0
  store i64 %0, i64* %2, align 8
  %3 = getelementptr inbounds { i64, i64 }, { i64, i64 }* %layout, i32 0, i32 1
  store i64 %1, i64* %3, align 8
; call core::alloc::layout::Layout::size
  %_4 = call i64 @_ZN4core5alloc6layout6Layout4size17h26facd415fa46c0aE({ i64, i64 }* align 8 %layout)
  br label %bb1

bb1:                                              ; preds = %start
  %4 = icmp eq i64 %_4, 0
  br i1 %4, label %bb5, label %bb2

bb5:                                              ; preds = %bb1
  br label %bb6

bb2:                                              ; preds = %bb1
; call core::ptr::non_null::NonNull<T>::as_ptr
  %_6 = call i8* @"_ZN4core3ptr8non_null16NonNull$LT$T$GT$6as_ptr17h469ba1ae5dcb7ddeE"(i8* %ptr)
  br label %bb3

bb3:                                              ; preds = %bb2
  %5 = getelementptr inbounds { i64, i64 }, { i64, i64 }* %layout, i32 0, i32 0
  %_8.0 = load i64, i64* %5, align 8
  %6 = getelementptr inbounds { i64, i64 }, { i64, i64 }* %layout, i32 0, i32 1
  %_8.1 = load i64, i64* %6, align 8, !range !8, !noundef !2
; call alloc::alloc::dealloc
  call void @_ZN5alloc5alloc7dealloc17hc268677f1401e629E(i8* %_6, i64 %_8.0, i64 %_8.1)
  br label %bb4

bb4:                                              ; preds = %bb3
  br label %bb6

bb6:                                              ; preds = %bb5, %bb4
  ret void
}

; <alloc::vec::Vec<T,A> as core::ops::drop::Drop>::drop
; Function Attrs: nonlazybind uwtable
define void @"_ZN70_$LT$alloc..vec..Vec$LT$T$C$A$GT$$u20$as$u20$core..ops..drop..Drop$GT$4drop17h5a60b33bc9cd96ecE"(%"alloc::vec::Vec<u8>"* align 8 %self) unnamed_addr #1 {
start:
; call alloc::vec::Vec<T,A>::as_mut_ptr
  %_3 = call i8* @"_ZN5alloc3vec16Vec$LT$T$C$A$GT$10as_mut_ptr17h30e17a77429c8252E"(%"alloc::vec::Vec<u8>"* align 8 %self)
  br label %bb1

bb1:                                              ; preds = %start
  %0 = getelementptr inbounds %"alloc::vec::Vec<u8>", %"alloc::vec::Vec<u8>"* %self, i32 0, i32 1
  %_5 = load i64, i64* %0, align 8
; call core::ptr::slice_from_raw_parts_mut
  %1 = call { [0 x i8]*, i64 } @_ZN4core3ptr24slice_from_raw_parts_mut17h0d7999eebfe002cbE(i8* %_3, i64 %_5)
  %_2.0 = extractvalue { [0 x i8]*, i64 } %1, 0
  %_2.1 = extractvalue { [0 x i8]*, i64 } %1, 1
  br label %bb2

bb2:                                              ; preds = %bb1
  br label %bb3

bb3:                                              ; preds = %bb2
  ret void
}

; <alloc::raw_vec::RawVec<T,A> as core::ops::drop::Drop>::drop
; Function Attrs: nonlazybind uwtable
define void @"_ZN77_$LT$alloc..raw_vec..RawVec$LT$T$C$A$GT$$u20$as$u20$core..ops..drop..Drop$GT$4drop17h3ece8b386cda0ce0E"({ i8*, i64 }* align 8 %self) unnamed_addr #1 {
start:
  %_2 = alloca %"core::option::Option<(core::ptr::non_null::NonNull<u8>, core::alloc::layout::Layout)>", align 8
; call alloc::raw_vec::RawVec<T,A>::current_memory
  call void @"_ZN5alloc7raw_vec19RawVec$LT$T$C$A$GT$14current_memory17h9c7b0d73724c7dbdE"(%"core::option::Option<(core::ptr::non_null::NonNull<u8>, core::alloc::layout::Layout)>"* sret(%"core::option::Option<(core::ptr::non_null::NonNull<u8>, core::alloc::layout::Layout)>") %_2, { i8*, i64 }* align 8 %self)
  br label %bb1

bb1:                                              ; preds = %start
  %0 = getelementptr inbounds %"core::option::Option<(core::ptr::non_null::NonNull<u8>, core::alloc::layout::Layout)>", %"core::option::Option<(core::ptr::non_null::NonNull<u8>, core::alloc::layout::Layout)>"* %_2, i32 0, i32 1
  %1 = load i64, i64* %0, align 8, !range !3, !noundef !2
  %2 = icmp eq i64 %1, 0
  %_4 = select i1 %2, i64 0, i64 1
  %3 = icmp eq i64 %_4, 1
  br i1 %3, label %bb2, label %bb4

bb2:                                              ; preds = %bb1
  %4 = bitcast %"core::option::Option<(core::ptr::non_null::NonNull<u8>, core::alloc::layout::Layout)>"* %_2 to %"core::option::Option<(core::ptr::non_null::NonNull<u8>, core::alloc::layout::Layout)>::Some"*
  %5 = bitcast %"core::option::Option<(core::ptr::non_null::NonNull<u8>, core::alloc::layout::Layout)>::Some"* %4 to { i8*, { i64, i64 } }*
  %6 = bitcast { i8*, { i64, i64 } }* %5 to i8**
  %ptr = load i8*, i8** %6, align 8, !nonnull !2, !noundef !2
  %7 = bitcast %"core::option::Option<(core::ptr::non_null::NonNull<u8>, core::alloc::layout::Layout)>"* %_2 to %"core::option::Option<(core::ptr::non_null::NonNull<u8>, core::alloc::layout::Layout)>::Some"*
  %8 = bitcast %"core::option::Option<(core::ptr::non_null::NonNull<u8>, core::alloc::layout::Layout)>::Some"* %7 to { i8*, { i64, i64 } }*
  %9 = getelementptr inbounds { i8*, { i64, i64 } }, { i8*, { i64, i64 } }* %8, i32 0, i32 1
  %10 = getelementptr inbounds { i64, i64 }, { i64, i64 }* %9, i32 0, i32 0
  %layout.0 = load i64, i64* %10, align 8
  %11 = getelementptr inbounds { i64, i64 }, { i64, i64 }* %9, i32 0, i32 1
  %layout.1 = load i64, i64* %11, align 8, !range !8, !noundef !2
  %_7 = bitcast { i8*, i64 }* %self to %"alloc::alloc::Global"*
; call <alloc::alloc::Global as core::alloc::Allocator>::deallocate
  call void @"_ZN63_$LT$alloc..alloc..Global$u20$as$u20$core..alloc..Allocator$GT$10deallocate17h58585c3a10cf613dE"(%"alloc::alloc::Global"* align 1 %_7, i8* %ptr, i64 %layout.0, i64 %layout.1)
  br label %bb3

bb4:                                              ; preds = %bb3, %bb1
  ret void

bb3:                                              ; preds = %bb2
  br label %bb4
}

; <core::result::Result<T,E> as core::ops::try_trait::Try>::branch
; Function Attrs: inlinehint nonlazybind uwtable
define { i64, i64 } @"_ZN79_$LT$core..result..Result$LT$T$C$E$GT$$u20$as$u20$core..ops..try_trait..Try$GT$6branch17hcaeadd5f25bad1e8E"(i64 %0, i64 %1) unnamed_addr #0 {
start:
  %_6 = alloca %"core::result::Result<core::convert::Infallible, core::alloc::layout::LayoutError>::Err", align 1
  %2 = alloca { i64, i64 }, align 8
  %self = alloca { i64, i64 }, align 8
  %3 = getelementptr inbounds { i64, i64 }, { i64, i64 }* %self, i32 0, i32 0
  store i64 %0, i64* %3, align 8
  %4 = getelementptr inbounds { i64, i64 }, { i64, i64 }* %self, i32 0, i32 1
  store i64 %1, i64* %4, align 8
  %5 = bitcast { i64, i64 }* %self to i64*
  %_2 = load i64, i64* %5, align 8, !range !9, !noundef !2
  switch i64 %_2, label %bb2 [
    i64 0, label %bb3
    i64 1, label %bb1
  ]

bb2:                                              ; preds = %start
  unreachable

bb3:                                              ; preds = %start
  %6 = getelementptr inbounds { i64, i64 }, { i64, i64 }* %self, i32 0, i32 1
  %v = load i64, i64* %6, align 8
  %7 = getelementptr inbounds { i64, i64 }, { i64, i64 }* %2, i32 0, i32 1
  store i64 %v, i64* %7, align 8
  %8 = bitcast { i64, i64 }* %2 to i64*
  store i64 0, i64* %8, align 8
  br label %bb4

bb1:                                              ; preds = %start
  %9 = bitcast %"core::result::Result<core::convert::Infallible, core::alloc::layout::LayoutError>::Err"* %_6 to %"core::alloc::layout::LayoutError"*
  %10 = getelementptr inbounds { i64, i64 }, { i64, i64 }* %2, i32 0, i32 1
  %11 = bitcast i64* %10 to %"core::result::Result<core::convert::Infallible, core::alloc::layout::LayoutError>::Err"*
  %12 = bitcast { i64, i64 }* %2 to i64*
  store i64 1, i64* %12, align 8
  br label %bb4

bb4:                                              ; preds = %bb3, %bb1
  %13 = getelementptr inbounds { i64, i64 }, { i64, i64 }* %2, i32 0, i32 0
  %14 = load i64, i64* %13, align 8, !range !9, !noundef !2
  %15 = getelementptr inbounds { i64, i64 }, { i64, i64 }* %2, i32 0, i32 1
  %16 = load i64, i64* %15, align 8
  %17 = insertvalue { i64, i64 } undef, i64 %14, 0
  %18 = insertvalue { i64, i64 } %17, i64 %16, 1
  ret { i64, i64 } %18
}

; probe1::probe
; Function Attrs: nonlazybind uwtable
define void @_ZN6probe15probe17ha5d9255eec1d4619E() unnamed_addr #1 {
start:
  %_10 = alloca [1 x { i8*, i64* }], align 8
  %_3 = alloca %"core::fmt::Arguments", align 8
  %res = alloca %"alloc::string::String", align 8
  %_1 = alloca %"alloc::string::String", align 8
; call core::fmt::ArgumentV1::new_lower_exp
  %0 = call { i8*, i64* } @_ZN4core3fmt10ArgumentV113new_lower_exp17hc7ce2c55becf7381E(i64* align 8 bitcast (<{ [8 x i8] }>* @alloc5 to i64*))
  %_11.0 = extractvalue { i8*, i64* } %0, 0
  %_11.1 = extractvalue { i8*, i64* } %0, 1
  br label %bb1

bb1:                                              ; preds = %start
  %1 = bitcast [1 x { i8*, i64* }]* %_10 to { i8*, i64* }*
  %2 = getelementptr inbounds { i8*, i64* }, { i8*, i64* }* %1, i32 0, i32 0
  store i8* %_11.0, i8** %2, align 8
  %3 = getelementptr inbounds { i8*, i64* }, { i8*, i64* }* %1, i32 0, i32 1
  store i64* %_11.1, i64** %3, align 8
  %_7.0 = bitcast [1 x { i8*, i64* }]* %_10 to [0 x { i8*, i64* }]*
; call core::fmt::Arguments::new_v1
  call void @_ZN4core3fmt9Arguments6new_v117h25ced847cf05ba3eE(%"core::fmt::Arguments"* sret(%"core::fmt::Arguments") %_3, [0 x { [0 x i8]*, i64 }]* align 8 bitcast (<{ i8*, [8 x i8] }>* @alloc3 to [0 x { [0 x i8]*, i64 }]*), i64 1, [0 x { i8*, i64* }]* align 8 %_7.0, i64 1)
  br label %bb2

bb2:                                              ; preds = %bb1
; call alloc::fmt::format
  call void @_ZN5alloc3fmt6format17h7e5f6d78017707c6E(%"alloc::string::String"* sret(%"alloc::string::String") %res, %"core::fmt::Arguments"* %_3)
  br label %bb3

bb3:                                              ; preds = %bb2
  %4 = bitcast %"alloc::string::String"* %_1 to i8*
  %5 = bitcast %"alloc::string::String"* %res to i8*
  call void @llvm.memcpy.p0i8.p0i8.i64(i8* align 8 %4, i8* align 8 %5, i64 24, i1 false)
; call core::ptr::drop_in_place<alloc::string::String>
  call void @"_ZN4core3ptr42drop_in_place$LT$alloc..string..String$GT$17hd0f8d72320ffb117E"(%"alloc::string::String"* %_1)
  br label %bb4

bb4:                                              ; preds = %bb3
  ret void
}

; core::fmt::num::imp::<impl core::fmt::LowerExp for isize>::fmt
; Function Attrs: nonlazybind uwtable
declare zeroext i1 @"_ZN4core3fmt3num3imp55_$LT$impl$u20$core..fmt..LowerExp$u20$for$u20$isize$GT$3fmt17h9bf3044b1d960844E"(i64* align 8, %"core::fmt::Formatter"* align 8) unnamed_addr #1

; core::panicking::panic_fmt
; Function Attrs: cold noinline noreturn nonlazybind uwtable
declare void @_ZN4core9panicking9panic_fmt17h741cfbfc95bc6112E(%"core::fmt::Arguments"*, %"core::panic::location::Location"* align 8) unnamed_addr #3

; Function Attrs: inaccessiblememonly nofree nosync nounwind willreturn
declare void @llvm.assume(i1 noundef) #4

; Function Attrs: nofree nosync nounwind readnone willreturn
declare i1 @llvm.expect.i1(i1, i1) #5

; Function Attrs: nofree nosync nounwind readnone speculatable willreturn
declare { i64, i1 } @llvm.umul.with.overflow.i64(i64, i64) #6

; Function Attrs: nonlazybind uwtable
declare i32 @rust_eh_personality(i32, i32, i64, %"unwind::libunwind::_Unwind_Exception"*, %"unwind::libunwind::_Unwind_Context"*) unnamed_addr #1

; core::panicking::panic_no_unwind
; Function Attrs: cold noinline noreturn nounwind nonlazybind uwtable
declare void @_ZN4core9panicking15panic_no_unwind17h911e42a789e66c4eE() unnamed_addr #7

; Function Attrs: nounwind nonlazybind uwtable
declare void @__rust_dealloc(i8*, i64, i64) unnamed_addr #8

; Function Attrs: argmemonly nofree nounwind willreturn
declare void @llvm.memcpy.p0i8.p0i8.i64(i8* noalias nocapture writeonly, i8* noalias nocapture readonly, i64, i1 immarg) #9

; alloc::fmt::format
; Function Attrs: nonlazybind uwtable
declare void @_ZN5alloc3fmt6format17h7e5f6d78017707c6E(%"alloc::string::String"* sret(%"alloc::string::String"), %"core::fmt::Arguments"*) unnamed_addr #1

attributes #0 = { inlinehint nonlazybind uwtable "probe-stack"="__rust_probestack" "target-cpu"="x86-64" }
attributes #1 = { nonlazybind uwtable "probe-stack"="__rust_probestack" "target-cpu"="x86-64" }
attributes #2 = { inlinehint noreturn nonlazybind uwtable "probe-stack"="__rust_probestack" "target-cpu"="x86-64" }
attributes #3 = { cold noinline noreturn nonlazybind uwtable "probe-stack"="__rust_probestack" "target-cpu"="x86-64" }
attributes #4 = { inaccessiblememonly nofree nosync nounwind willreturn }
attributes #5 = { nofree nosync nounwind readnone willreturn }
attributes #6 = { nofree nosync nounwind readnone speculatable willreturn }
attributes #7 = { cold noinline noreturn nounwind nonlazybind uwtable "probe-stack"="__rust_probestack" "target-cpu"="x86-64" }
attributes #8 = { nounwind nonlazybind uwtable "probe-stack"="__rust_probestack" "target-cpu"="x86-64" }
attributes #9 = { argmemonly nofree nounwind willreturn }
attributes #10 = { noreturn }
attributes #11 = { noinline }
attributes #12 = { noinline noreturn nounwind }
attributes #13 = { nounwind }

!llvm.module.flags = !{!0, !1}

!0 = !{i32 7, !"PIC Level", i32 2}
!1 = !{i32 2, !"RtLibUseGOT", i32 1}
!2 = !{}
!3 = !{i64 0, i64 -9223372036854775807}
!4 = !{i64 1}
!5 = !{i8 0, i8 2}
!6 = !{i64 8}
!7 = !{i64 1, i64 0}
!8 = !{i64 1, i64 -9223372036854775807}
!9 = !{i64 0, i64 2}
